; ModuleID = '57/3355.c'
source_filename = "57/3355.c"
target datalayout = "e-m:e-p270:32:32-p271:32:32-p272:64:64-i64:64-f80:128-n8:16:32:64-S128"
target triple = "x86_64-pc-linux-gnu"

@.str = private unnamed_addr constant [3 x i8] c"%d\00", align 1
@.str.1 = private unnamed_addr constant [3 x i8] c"%s\00", align 1
@.str.2 = private unnamed_addr constant [4 x i8] c"%s\0A\00", align 1

; Function Attrs: noinline nounwind uwtable
define dso_local void @main() #0 {
  %1 = alloca [30 x i8], align 16
  %2 = alloca i32, align 4
  %3 = alloca i32, align 4
  %4 = alloca i32, align 4
  %5 = call i32 (i8*, ...) @__isoc99_scanf(i8* getelementptr inbounds ([3 x i8], [3 x i8]* @.str, i64 0, i64 0), i32* %2)
  store i32 1, i32* %3, align 4
  br label %6

6:                                                ; preds = %95, %0
  %7 = load i32, i32* %3, align 4
  %8 = load i32, i32* %2, align 4
  %9 = icmp sle i32 %7, %8
  br i1 %9, label %10, label %98

10:                                               ; preds = %6
  %11 = getelementptr inbounds [30 x i8], [30 x i8]* %1, i64 0, i64 0
  %12 = call i32 (i8*, ...) @__isoc99_scanf(i8* getelementptr inbounds ([3 x i8], [3 x i8]* @.str.1, i64 0, i64 0), i8* %11)
  %13 = getelementptr inbounds [30 x i8], [30 x i8]* %1, i64 0, i64 0
  %14 = call i64 @strlen(i8* %13) #3
  %15 = trunc i64 %14 to i32
  store i32 %15, i32* %4, align 4
  %16 = load i32, i32* %4, align 4
  %17 = sub nsw i32 %16, 1
  %18 = sext i32 %17 to i64
  %19 = getelementptr inbounds [30 x i8], [30 x i8]* %1, i64 0, i64 %18
  %20 = load i8, i8* %19, align 1
  %21 = sext i8 %20 to i32
  %22 = icmp eq i32 %21, 121
  br i1 %22, label %23, label %38

23:                                               ; preds = %10
  %24 = load i32, i32* %4, align 4
  %25 = sub nsw i32 %24, 2
  %26 = sext i32 %25 to i64
  %27 = getelementptr inbounds [30 x i8], [30 x i8]* %1, i64 0, i64 %26
  %28 = load i8, i8* %27, align 1
  %29 = sext i8 %28 to i32
  %30 = icmp eq i32 %29, 108
  br i1 %30, label %31, label %38

31:                                               ; preds = %23
  %32 = load i32, i32* %4, align 4
  %33 = sub nsw i32 %32, 2
  %34 = sext i32 %33 to i64
  %35 = getelementptr inbounds [30 x i8], [30 x i8]* %1, i64 0, i64 %34
  store i8 0, i8* %35, align 1
  %36 = getelementptr inbounds [30 x i8], [30 x i8]* %1, i64 0, i64 0
  %37 = call i32 (i8*, ...) @printf(i8* getelementptr inbounds ([4 x i8], [4 x i8]* @.str.2, i64 0, i64 0), i8* %36)
  br label %94

38:                                               ; preds = %23, %10
  %39 = load i32, i32* %4, align 4
  %40 = sub nsw i32 %39, 1
  %41 = sext i32 %40 to i64
  %42 = getelementptr inbounds [30 x i8], [30 x i8]* %1, i64 0, i64 %41
  %43 = load i8, i8* %42, align 1
  %44 = sext i8 %43 to i32
  %45 = icmp eq i32 %44, 103
  br i1 %45, label %46, label %69

46:                                               ; preds = %38
  %47 = load i32, i32* %4, align 4
  %48 = sub nsw i32 %47, 2
  %49 = sext i32 %48 to i64
  %50 = getelementptr inbounds [30 x i8], [30 x i8]* %1, i64 0, i64 %49
  %51 = load i8, i8* %50, align 1
  %52 = sext i8 %51 to i32
  %53 = icmp eq i32 %52, 110
  br i1 %53, label %54, label %69

54:                                               ; preds = %46
  %55 = load i32, i32* %4, align 4
  %56 = sub nsw i32 %55, 3
  %57 = sext i32 %56 to i64
  %58 = getelementptr inbounds [30 x i8], [30 x i8]* %1, i64 0, i64 %57
  %59 = load i8, i8* %58, align 1
  %60 = sext i8 %59 to i32
  %61 = icmp eq i32 %60, 105
  br i1 %61, label %62, label %69

62:                                               ; preds = %54
  %63 = load i32, i32* %4, align 4
  %64 = sub nsw i32 %63, 3
  %65 = sext i32 %64 to i64
  %66 = getelementptr inbounds [30 x i8], [30 x i8]* %1, i64 0, i64 %65
  store i8 0, i8* %66, align 1
  %67 = getelementptr inbounds [30 x i8], [30 x i8]* %1, i64 0, i64 0
  %68 = call i32 (i8*, ...) @printf(i8* getelementptr inbounds ([4 x i8], [4 x i8]* @.str.2, i64 0, i64 0), i8* %67)
  br label %93

69:                                               ; preds = %54, %46, %38
  %70 = load i32, i32* %4, align 4
  %71 = sub nsw i32 %70, 1
  %72 = sext i32 %71 to i64
  %73 = getelementptr inbounds [30 x i8], [30 x i8]* %1, i64 0, i64 %72
  %74 = load i8, i8* %73, align 1
  %75 = sext i8 %74 to i32
  %76 = icmp eq i32 %75, 114
  br i1 %76, label %77, label %92

77:                                               ; preds = %69
  %78 = load i32, i32* %4, align 4
  %79 = sub nsw i32 %78, 2
  %80 = sext i32 %79 to i64
  %81 = getelementptr inbounds [30 x i8], [30 x i8]* %1, i64 0, i64 %80
  %82 = load i8, i8* %81, align 1
  %83 = sext i8 %82 to i32
  %84 = icmp eq i32 %83, 101
  br i1 %84, label %85, label %92

85:                                               ; preds = %77
  %86 = load i32, i32* %4, align 4
  %87 = sub nsw i32 %86, 2
  %88 = sext i32 %87 to i64
  %89 = getelementptr inbounds [30 x i8], [30 x i8]* %1, i64 0, i64 %88
  store i8 0, i8* %89, align 1
  %90 = getelementptr inbounds [30 x i8], [30 x i8]* %1, i64 0, i64 0
  %91 = call i32 (i8*, ...) @printf(i8* getelementptr inbounds ([4 x i8], [4 x i8]* @.str.2, i64 0, i64 0), i8* %90)
  br label %92

92:                                               ; preds = %85, %77, %69
  br label %93

93:                                               ; preds = %92, %62
  br label %94

94:                                               ; preds = %93, %31
  br label %95

95:                                               ; preds = %94
  %96 = load i32, i32* %3, align 4
  %97 = add nsw i32 %96, 1
  store i32 %97, i32* %3, align 4
  br label %6

98:                                               ; preds = %6
  ret void
}

declare dso_local i32 @__isoc99_scanf(i8*, ...) #1

; Function Attrs: nounwind readonly
declare dso_local i64 @strlen(i8*) #2

declare dso_local i32 @printf(i8*, ...) #1


!llvm.module.flags = !{!0}
!llvm.ident = !{!1}

!0 = !{i32 1, !"wchar_size", i32 4}
!1 = !{!"clang version 10.0.0-4ubuntu1 "}
